target datalayout = "e-m:e-p270:32:32-p271:32:32-p272:64:64-i64:64-i128:128-f80:128-n8:16:32:64-S128"
target triple = "x86_64-pc-linux-gnu"

%"class.arrow::util::Float16" = type { i16 }

; Function Attrs: mustprogress nounwind uwtable
define linkonce_odr void @_ZN5arrow4util7Float16C2Etb(ptr noundef nonnull align 2 dereferenceable(2) %0, i16 noundef zeroext %1, i1 noundef zeroext %2) unnamed_addr #2 comdat align 2 {
  %4 = alloca ptr, align 8
  %5 = alloca i16, align 2
  %6 = alloca i8, align 1
  store ptr %0, ptr %4, align 8, !tbaa !3
  store i16 %1, ptr %5, align 2, !tbaa !13
  %7 = zext i1 %2 to i8
  store i8 %7, ptr %6, align 1, !tbaa !25
  %8 = load ptr, ptr %4, align 8
  %9 = getelementptr inbounds nuw %"class.arrow::util::Float16", ptr %8, i32 0, i32 0
  %10 = load i16, ptr %5, align 2, !tbaa !13
  store i16 %10, ptr %9, align 2, !tbaa !8
  ret void
}

; Function Attrs: mustprogress uwtable
define linkonce_odr i16 @_ZN5arrow4util7Float168FromBitsEt(i16 noundef zeroext %0) #0 comdat align 2 {
  %2 = alloca %"class.arrow::util::Float16", align 2
  %3 = alloca i16, align 2
  store i16 %0, ptr %3, align 2, !tbaa !13
  %4 = load i16, ptr %3, align 2, !tbaa !13
  call void @_ZN5arrow4util7Float16C2Etb(ptr noundef nonnull align 2 dereferenceable(2) %2, i16 noundef zeroext %4, i1 noundef zeroext false)
  %5 = getelementptr inbounds nuw %"class.arrow::util::Float16", ptr %2, i32 0, i32 0
  %6 = load i16, ptr %5, align 2
  ret i16 %6
}

; Function Attrs: mustprogress nounwind uwtable
define internal noundef zeroext i16 @_ZN5arrow4util12_GLOBAL__N_115BinaryConverterIjE10ToBinary16Ej(i32 noundef %0) #2 align 2 {
  %2 = alloca i16, align 2
  %3 = alloca i32, align 4
  %4 = alloca i16, align 2
  %5 = alloca i32, align 4
  %6 = alloca i16, align 2
  %7 = alloca i16, align 2
  %8 = alloca i16, align 2
  %9 = alloca i32, align 4
  %10 = alloca i32, align 4
  %11 = alloca i16, align 2
  %12 = alloca i32, align 4
  %13 = alloca i32, align 4
  %14 = alloca i16, align 2
  %15 = alloca i16, align 2
  %16 = alloca i32, align 4
  %17 = alloca i16, align 2
  store i32 %0, ptr %3, align 4, !tbaa !11
  call void @llvm.lifetime.start.p0(i64 2, ptr %4) #6
  %18 = load i32, ptr %3, align 4, !tbaa !11
  %19 = lshr i32 %18, 16
  %20 = and i32 %19, 32768
  %21 = trunc i32 %20 to i16
  store i16 %21, ptr %4, align 2, !tbaa !13
  call void @llvm.lifetime.start.p0(i64 4, ptr %5) #6
  %22 = load i32, ptr %3, align 4, !tbaa !11
  %23 = and i32 %22, 2139095040
  store i32 %23, ptr %5, align 4, !tbaa !11
  call void @llvm.lifetime.start.p0(i64 2, ptr %6) #6
  %24 = load i32, ptr %5, align 4, !tbaa !11
  %25 = lshr i32 %24, 23
  %26 = trunc i32 %25 to i16
  store i16 %26, ptr %6, align 2, !tbaa !13
  call void @llvm.lifetime.start.p0(i64 2, ptr %7) #6
  %27 = load i16, ptr %6, align 2, !tbaa !13
  %28 = sext i16 %27 to i32
  %29 = sub nsw i32 %28, 127
  %30 = trunc i32 %29 to i16
  store i16 %30, ptr %7, align 2, !tbaa !13
  call void @llvm.lifetime.start.p0(i64 2, ptr %8) #6
  %31 = load i16, ptr %7, align 2, !tbaa !13
  %32 = sext i16 %31 to i32
  %33 = add nsw i32 %32, 15
  %34 = trunc i32 %33 to i16
  store i16 %34, ptr %8, align 2, !tbaa !13
  call void @llvm.lifetime.start.p0(i64 4, ptr %9) #6
  %35 = load i32, ptr %3, align 4, !tbaa !11
  %36 = and i32 %35, 8388607
  store i32 %36, ptr %9, align 4, !tbaa !11
  call void @llvm.lifetime.start.p0(i64 4, ptr %10) #6
  store i32 4096, ptr %10, align 4, !tbaa !11
  %37 = load i16, ptr %8, align 2, !tbaa !13
  %38 = sext i16 %37 to i32
  %39 = icmp sge i32 %38, 31
  br i1 %39, label %40, label %67

40:                                               ; preds = %1
  %41 = load i32, ptr %5, align 4, !tbaa !11
  %42 = icmp eq i32 %41, 2139095040
  br i1 %42, label %43, label %62

43:                                               ; preds = %40
  %44 = load i32, ptr %9, align 4, !tbaa !11
  %45 = icmp ne i32 %44, 0
  br i1 %45, label %46, label %62

46:                                               ; preds = %43
  call void @llvm.lifetime.start.p0(i64 2, ptr %11) #6
  %47 = load i32, ptr %9, align 4, !tbaa !11
  %48 = lshr i32 %47, 13
  %49 = trunc i32 %48 to i16
  store i16 %49, ptr %11, align 2, !tbaa !13
  %50 = load i16, ptr %11, align 2, !tbaa !13
  %51 = zext i16 %50 to i32
  %52 = icmp eq i32 %51, 0
  br i1 %52, label %53, label %54

53:                                               ; preds = %46
  store i16 1, ptr %11, align 2, !tbaa !13
  br label %54

54:                                               ; preds = %53, %46
  %55 = load i16, ptr %4, align 2, !tbaa !13
  %56 = zext i16 %55 to i32
  %57 = or i32 %56, 31744
  %58 = load i16, ptr %11, align 2, !tbaa !13
  %59 = zext i16 %58 to i32
  %60 = or i32 %57, %59
  %61 = trunc i32 %60 to i16
  store i16 %61, ptr %2, align 2
  store i32 1, ptr %12, align 4
  call void @llvm.lifetime.end.p0(i64 2, ptr %11) #6
  br label %130

62:                                               ; preds = %43, %40
  %63 = load i16, ptr %4, align 2, !tbaa !13
  %64 = zext i16 %63 to i32
  %65 = or i32 %64, 31744
  %66 = trunc i32 %65 to i16
  store i16 %66, ptr %2, align 2
  store i32 1, ptr %12, align 4
  br label %130

67:                                               ; preds = %1
  %68 = load i16, ptr %8, align 2, !tbaa !13
  %69 = sext i16 %68 to i32
  %70 = icmp sle i32 %69, 0
  br i1 %70, label %71, label %105

71:                                               ; preds = %67
  %72 = load i16, ptr %8, align 2, !tbaa !13
  %73 = sext i16 %72 to i32
  %74 = icmp slt i32 %73, -10
  br i1 %74, label %75, label %77

75:                                               ; preds = %71
  %76 = load i16, ptr %4, align 2, !tbaa !13
  store i16 %76, ptr %2, align 2
  store i32 1, ptr %12, align 4
  br label %130

77:                                               ; preds = %71
  call void @llvm.lifetime.start.p0(i64 4, ptr %13) #6
  %78 = load i32, ptr %9, align 4, !tbaa !11
  %79 = or i32 8388608, %78
  store i32 %79, ptr %13, align 4, !tbaa !11
  %80 = load i16, ptr %8, align 2, !tbaa !13
  %81 = sext i16 %80 to i32
  %82 = sub nsw i32 1, %81
  %83 = load i32, ptr %13, align 4, !tbaa !11
  %84 = lshr i32 %83, %82
  store i32 %84, ptr %13, align 4, !tbaa !11
  %85 = load i32, ptr %13, align 4, !tbaa !11
  %86 = and i32 %85, 16383
  %87 = icmp ne i32 %86, 4096
  br i1 %87, label %92, label %88

88:                                               ; preds = %77
  %89 = load i32, ptr %9, align 4, !tbaa !11
  %90 = and i32 %89, 2047
  %91 = icmp ne i32 %90, 0
  br i1 %91, label %92, label %95

92:                                               ; preds = %88, %77
  %93 = load i32, ptr %13, align 4, !tbaa !11
  %94 = add i32 %93, 4096
  store i32 %94, ptr %13, align 4, !tbaa !11
  br label %95

95:                                               ; preds = %92, %88
  call void @llvm.lifetime.start.p0(i64 2, ptr %14) #6
  %96 = load i32, ptr %13, align 4, !tbaa !11
  %97 = lshr i32 %96, 13
  %98 = trunc i32 %97 to i16
  store i16 %98, ptr %14, align 2, !tbaa !13
  %99 = load i16, ptr %4, align 2, !tbaa !13
  %100 = zext i16 %99 to i32
  %101 = load i16, ptr %14, align 2, !tbaa !13
  %102 = zext i16 %101 to i32
  %103 = add nsw i32 %100, %102
  %104 = trunc i32 %103 to i16
  store i16 %104, ptr %2, align 2
  store i32 1, ptr %12, align 4
  call void @llvm.lifetime.end.p0(i64 2, ptr %14) #6
  call void @llvm.lifetime.end.p0(i64 4, ptr %13) #6
  br label %130

105:                                              ; preds = %67
  call void @llvm.lifetime.start.p0(i64 2, ptr %15) #6
  %106 = load i16, ptr %8, align 2, !tbaa !13
  %107 = zext i16 %106 to i32
  %108 = shl i32 %107, 10
  %109 = trunc i32 %108 to i16
  store i16 %109, ptr %15, align 2, !tbaa !13
  call void @llvm.lifetime.start.p0(i64 4, ptr %16) #6
  %110 = load i32, ptr %9, align 4, !tbaa !11
  store i32 %110, ptr %16, align 4, !tbaa !11
  %111 = load i32, ptr %16, align 4, !tbaa !11
  %112 = and i32 %111, 16383
  %113 = icmp ne i32 %112, 4096
  br i1 %113, label %114, label %117

114:                                              ; preds = %105
  %115 = load i32, ptr %16, align 4, !tbaa !11
  %116 = add i32 %115, 4096
  store i32 %116, ptr %16, align 4, !tbaa !11
  br label %117

117:                                              ; preds = %114, %105
  call void @llvm.lifetime.start.p0(i64 2, ptr %17) #6
  %118 = load i32, ptr %16, align 4, !tbaa !11
  %119 = lshr i32 %118, 13
  %120 = trunc i32 %119 to i16
  store i16 %120, ptr %17, align 2, !tbaa !13
  %121 = load i16, ptr %4, align 2, !tbaa !13
  %122 = zext i16 %121 to i32
  %123 = load i16, ptr %15, align 2, !tbaa !13
  %124 = zext i16 %123 to i32
  %125 = add nsw i32 %122, %124
  %126 = load i16, ptr %17, align 2, !tbaa !13
  %127 = zext i16 %126 to i32
  %128 = add nsw i32 %125, %127
  %129 = trunc i32 %128 to i16
  store i16 %129, ptr %2, align 2
  store i32 1, ptr %12, align 4
  call void @llvm.lifetime.end.p0(i64 2, ptr %17) #6
  call void @llvm.lifetime.end.p0(i64 4, ptr %16) #6
  call void @llvm.lifetime.end.p0(i64 2, ptr %15) #6
  br label %130

130:                                              ; preds = %117, %95, %75, %62, %54
  call void @llvm.lifetime.end.p0(i64 4, ptr %10) #6
  call void @llvm.lifetime.end.p0(i64 4, ptr %9) #6
  call void @llvm.lifetime.end.p0(i64 2, ptr %8) #6
  call void @llvm.lifetime.end.p0(i64 2, ptr %7) #6
  call void @llvm.lifetime.end.p0(i64 2, ptr %6) #6
  call void @llvm.lifetime.end.p0(i64 4, ptr %5) #6
  call void @llvm.lifetime.end.p0(i64 2, ptr %4) #6
  %131 = load i16, ptr %2, align 2
  ret i16 %131
}

; Function Attrs: inlinehint mustprogress nounwind uwtable
define linkonce_odr noundef i32 @_ZN5arrow4util8SafeCopyIjfEENSt9enable_ifIXaaaasr3stdE23is_trivially_copyable_vIT0_Esr3stdE23is_trivially_copyable_vIT_EeqstS3_stS4_ES4_E4typeES3_(float noundef %0) #3 comdat {
  %2 = alloca float, align 4
  %3 = alloca i32, align 4
  store float %0, ptr %2, align 4, !tbaa !16
  call void @llvm.lifetime.start.p0(i64 4, ptr %3) #6
  call void @llvm.memcpy.p0.p0.i64(ptr align 4 %3, ptr align 1 %2, i64 4, i1 false)
  %4 = load i32, ptr %3, align 4, !tbaa !11
  call void @llvm.lifetime.end.p0(i64 4, ptr %3) #6
  ret i32 %4
}

; Function Attrs: mustprogress uwtable
define i16 @_ZN5arrow4util7Float169FromFloatEf(float noundef %0) #0 align 2 {
  %2 = alloca %"class.arrow::util::Float16", align 2
  %3 = alloca float, align 4
  %4 = alloca i32, align 4
  store float %0, ptr %3, align 4, !tbaa !16
  call void @llvm.lifetime.start.p0(i64 4, ptr %4) #6
  %5 = load float, ptr %3, align 4, !tbaa !16
  %6 = call noundef i32 @_ZN5arrow4util8SafeCopyIjfEENSt9enable_ifIXaaaasr3stdE23is_trivially_copyable_vIT0_Esr3stdE23is_trivially_copyable_vIT_EeqstS3_stS4_ES4_E4typeES3_(float noundef %5)
  store i32 %6, ptr %4, align 4, !tbaa !11
  %7 = load i32, ptr %4, align 4, !tbaa !11
  %8 = call noundef zeroext i16 @_ZN5arrow4util12_GLOBAL__N_115BinaryConverterIjE10ToBinary16Ej(i32 noundef %7)
  %9 = call i16 @_ZN5arrow4util7Float168FromBitsEt(i16 noundef zeroext %8)
  %10 = getelementptr inbounds nuw %"class.arrow::util::Float16", ptr %2, i32 0, i32 0
  store i16 %9, ptr %10, align 2
  call void @llvm.lifetime.end.p0(i64 4, ptr %4) #6
  %11 = getelementptr inbounds nuw %"class.arrow::util::Float16", ptr %2, i32 0, i32 0
  %12 = load i16, ptr %11, align 2
  ret i16 %12
}