; Function Attrs: mustprogress nofree norecurse nosync nounwind willreturn memory(none) uwtable
define i16 @_ZN5arrow4util7Float169FromFloatEf(float noundef %0) local_unnamed_addr #1 align 2 {
  %2 = bitcast float %0 to i32
  %3 = lshr i32 %2, 16
  %4 = trunc nuw i32 %3 to i16
  %5 = and i16 %4, -32768
  %6 = and i32 %2, 2139095040
  %7 = lshr exact i32 %6, 23
  %8 = and i32 %2, 8388607
  %9 = icmp samesign ugt i32 %6, 1191182336
  br i1 %9, label %10, label %19

10:                                               ; preds = %1
  %or.cond.i = fcmp uno float %0, 0.000000e+00
  br i1 %or.cond.i, label %11, label %17

11:                                               ; preds = %10
  %12 = and i32 %3, 64512
  %13 = tail call i32 @llvm.umax.i32(i32 %8, i32 8192)
  %14 = lshr i32 %13, 13
  %15 = or disjoint i32 %14, %12
  %16 = trunc nuw i32 %15 to i16
  br label %_ZN5arrow4util12_GLOBAL__N_115BinaryConverterIjE10ToBinary16Ej.exit

17:                                               ; preds = %10
  %18 = or disjoint i16 %5, 31744
  br label %_ZN5arrow4util12_GLOBAL__N_115BinaryConverterIjE10ToBinary16Ej.exit

19:                                               ; preds = %1
  %20 = icmp samesign ult i32 %6, 947912704
  br i1 %20, label %21, label %33

21:                                               ; preds = %19
  %22 = icmp samesign ult i32 %6, 855638016
  br i1 %22, label %_ZN5arrow4util12_GLOBAL__N_115BinaryConverterIjE10ToBinary16Ej.exit, label %23

23:                                               ; preds = %21
  %24 = or disjoint i32 %8, 8388608
  %narrow.i = sub nsw i32 113, %7
  %25 = lshr i32 %24, %narrow.i
  %26 = and i32 %25, 16383
  %.not40.i = icmp eq i32 %26, 4096
  %27 = and i32 %2, 2047
  %.not41.i = icmp eq i32 %27, 0
  %or.cond42.i = and i1 %.not41.i, %.not40.i
  %28 = add nuw nsw i32 %25, 4096
  %.037.i = select i1 %or.cond42.i, i32 %25, i32 %28
  %29 = lshr i32 %.037.i, 13
  %30 = and i32 %3, 32768
  %31 = or disjoint i32 %29, %30
  %32 = trunc nuw i32 %31 to i16
  br label %_ZN5arrow4util12_GLOBAL__N_115BinaryConverterIjE10ToBinary16Ej.exit

33:                                               ; preds = %19
  %34 = lshr i32 %2, 13
  %35 = add nuw nsw i32 %34, 16384
  %36 = and i32 %2, 16383
  %.not.i = icmp eq i32 %36, 4096
  %37 = add nuw nsw i32 %8, 4096
  %spec.select.i = select i1 %.not.i, i32 %8, i32 %37
  %38 = lshr i32 %spec.select.i, 13
  %39 = and i32 %3, 32768
  %40 = and i32 %35, 64512
  %41 = add nuw nsw i32 %40, %39
  %42 = add nuw nsw i32 %41, %38
  %43 = trunc i32 %42 to i16
  br label %_ZN5arrow4util12_GLOBAL__N_115BinaryConverterIjE10ToBinary16Ej.exit

_ZN5arrow4util12_GLOBAL__N_115BinaryConverterIjE10ToBinary16Ej.exit: ; preds = %11, %17, %21, %23, %33
  %.0.i = phi i16 [ %16, %11 ], [ %18, %17 ], [ %32, %23 ], [ %43, %33 ], [ %5, %21 ]
  ret i16 %.0.i
}